target datalayout = "e-m:e-p270:32:32-p271:32:32-p272:64:64-i64:64-i128:128-f80:128-n8:16:32:64-S128"
target triple = "x86_64-pc-linux-gnu"

%struct.AVExpr = type { i32, double, i32, %union.anon, [3 x ptr], ptr, ptr }
%union.anon = type { ptr }
%struct.Parser = type { ptr, i32, ptr, ptr, ptr, ptr, ptr, ptr, ptr, ptr, i32, ptr, ptr, ptr }

; Function Attrs: nounwind uwtable
define internal i32 @parse_pow(ptr noundef %0, ptr noundef %1, ptr noundef %2) #0 {
  %4 = alloca ptr, align 8
  %5 = alloca ptr, align 8
  %6 = alloca ptr, align 8
  store ptr %0, ptr %4, align 8, !tbaa !23
  store ptr %1, ptr %5, align 8, !tbaa !46
  store ptr %2, ptr %6, align 8, !tbaa !50
  %7 = load ptr, ptr %5, align 8, !tbaa !46
  %8 = getelementptr inbounds nuw %struct.Parser, ptr %7, i32 0, i32 2
  %9 = load ptr, ptr %8, align 8, !tbaa !35
  %10 = load i8, ptr %9, align 1, !tbaa !12
  %11 = sext i8 %10 to i32
  %12 = icmp eq i32 %11, 43
  %13 = zext i1 %12 to i32
  %14 = load ptr, ptr %5, align 8, !tbaa !46
  %15 = getelementptr inbounds nuw %struct.Parser, ptr %14, i32 0, i32 2
  %16 = load ptr, ptr %15, align 8, !tbaa !35
  %17 = load i8, ptr %16, align 1, !tbaa !12
  %18 = sext i8 %17 to i32
  %19 = icmp eq i32 %18, 45
  %20 = zext i1 %19 to i32
  %21 = sub nsw i32 %13, %20
  %22 = load ptr, ptr %6, align 8, !tbaa !50
  store i32 %21, ptr %22, align 4, !tbaa !17
  %23 = load ptr, ptr %6, align 8, !tbaa !50
  %24 = load i32, ptr %23, align 4, !tbaa !17
  %25 = and i32 %24, 1
  %26 = load ptr, ptr %5, align 8, !tbaa !46
  %27 = getelementptr inbounds nuw %struct.Parser, ptr %26, i32 0, i32 2
  %28 = load ptr, ptr %27, align 8, !tbaa !35
  %29 = sext i32 %25 to i64
  %30 = getelementptr inbounds i8, ptr %28, i64 %29
  store ptr %30, ptr %27, align 8, !tbaa !35
  %31 = load ptr, ptr %4, align 8, !tbaa !23
  %32 = load ptr, ptr %5, align 8, !tbaa !46
  %33 = call i32 @parse_primary(ptr noundef %31, ptr noundef %32)
  ret i32 %33
}

; Function Attrs: nounwind uwtable
define internal ptr @make_eval_expr(i32 noundef %0, i32 noundef %1, ptr noundef %2, ptr noundef %3) #0 {
  %5 = alloca ptr, align 8
  %6 = alloca i32, align 4
  %7 = alloca i32, align 4
  %8 = alloca ptr, align 8
  %9 = alloca ptr, align 8
  %10 = alloca ptr, align 8
  %11 = alloca i32, align 4
  store i32 %0, ptr %6, align 4, !tbaa !17
  store i32 %1, ptr %7, align 4, !tbaa !17
  store ptr %2, ptr %8, align 8, !tbaa !21
  store ptr %3, ptr %9, align 8, !tbaa !21
  call void @llvm.lifetime.start.p0(i64 8, ptr %10) #12
  %12 = call noalias ptr @av_mallocz(i64 noundef 72)
  store ptr %12, ptr %10, align 8, !tbaa !21
  %13 = load ptr, ptr %10, align 8, !tbaa !21
  %14 = icmp ne ptr %13, null
  br i1 %14, label %16, label %15

15:                                               ; preds = %4
  store ptr null, ptr %5, align 8
  store i32 1, ptr %11, align 4
  br label %33

16:                                               ; preds = %4
  %17 = load i32, ptr %6, align 4, !tbaa !17
  %18 = load ptr, ptr %10, align 8, !tbaa !21
  %19 = getelementptr inbounds nuw %struct.AVExpr, ptr %18, i32 0, i32 0
  store i32 %17, ptr %19, align 8, !tbaa !49
  %20 = load i32, ptr %7, align 4, !tbaa !17
  %21 = sitofp i32 %20 to double
  %22 = load ptr, ptr %10, align 8, !tbaa !21
  %23 = getelementptr inbounds nuw %struct.AVExpr, ptr %22, i32 0, i32 1
  store double %21, ptr %23, align 8, !tbaa !59
  %24 = load ptr, ptr %8, align 8, !tbaa !21
  %25 = load ptr, ptr %10, align 8, !tbaa !21
  %26 = getelementptr inbounds nuw %struct.AVExpr, ptr %25, i32 0, i32 4
  %27 = getelementptr inbounds [3 x ptr], ptr %26, i64 0, i64 0
  store ptr %24, ptr %27, align 8, !tbaa !21
  %28 = load ptr, ptr %9, align 8, !tbaa !21
  %29 = load ptr, ptr %10, align 8, !tbaa !21
  %30 = getelementptr inbounds nuw %struct.AVExpr, ptr %29, i32 0, i32 4
  %31 = getelementptr inbounds [3 x ptr], ptr %30, i64 0, i64 1
  store ptr %28, ptr %31, align 8, !tbaa !21
  %32 = load ptr, ptr %10, align 8, !tbaa !21
  store ptr %32, ptr %5, align 8
  store i32 1, ptr %11, align 4
  br label %33

33:                                               ; preds = %16, %15
  call void @llvm.lifetime.end.p0(i64 8, ptr %10) #12
  %34 = load ptr, ptr %5, align 8
  ret ptr %34
}

; Function Attrs: nounwind uwtable
define internal i32 @parse_dB(ptr noundef %0, ptr noundef %1, ptr noundef %2) #0 {
  %4 = alloca i32, align 4
  %5 = alloca ptr, align 8
  %6 = alloca ptr, align 8
  %7 = alloca ptr, align 8
  %8 = alloca ptr, align 8
  %9 = alloca double, align 8
  %10 = alloca i32, align 4
  store ptr %0, ptr %5, align 8, !tbaa !23
  store ptr %1, ptr %6, align 8, !tbaa !46
  store ptr %2, ptr %7, align 8, !tbaa !50
  %11 = load ptr, ptr %6, align 8, !tbaa !46
  %12 = getelementptr inbounds nuw %struct.Parser, ptr %11, i32 0, i32 2
  %13 = load ptr, ptr %12, align 8, !tbaa !35
  %14 = load i8, ptr %13, align 1, !tbaa !12
  %15 = sext i8 %14 to i32
  %16 = icmp eq i32 %15, 45
  br i1 %16, label %17, label %48

17:                                               ; preds = %3
  call void @llvm.lifetime.start.p0(i64 8, ptr %8) #12
  call void @llvm.lifetime.start.p0(i64 8, ptr %9) #12
  %18 = load ptr, ptr %6, align 8, !tbaa !46
  %19 = getelementptr inbounds nuw %struct.Parser, ptr %18, i32 0, i32 2
  %20 = load ptr, ptr %19, align 8, !tbaa !35
  %21 = call nsz double @strtod(ptr noundef %20, ptr noundef %8) #12
  store double %21, ptr %9, align 8, !tbaa !13
  %22 = load ptr, ptr %8, align 8, !tbaa !4
  %23 = load ptr, ptr %6, align 8, !tbaa !46
  %24 = getelementptr inbounds nuw %struct.Parser, ptr %23, i32 0, i32 2
  %25 = load ptr, ptr %24, align 8, !tbaa !35
  %26 = icmp ne ptr %22, %25
  br i1 %26, label %27, label %44

27:                                               ; preds = %17
  %28 = load ptr, ptr %8, align 8, !tbaa !4
  %29 = getelementptr inbounds i8, ptr %28, i64 0
  %30 = load i8, ptr %29, align 1, !tbaa !12
  %31 = sext i8 %30 to i32
  %32 = icmp eq i32 %31, 100
  br i1 %32, label %33, label %44

33:                                               ; preds = %27
  %34 = load ptr, ptr %8, align 8, !tbaa !4
  %35 = getelementptr inbounds i8, ptr %34, i64 1
  %36 = load i8, ptr %35, align 1, !tbaa !12
  %37 = sext i8 %36 to i32
  %38 = icmp eq i32 %37, 66
  br i1 %38, label %39, label %44

39:                                               ; preds = %33
  %40 = load ptr, ptr %7, align 8, !tbaa !50
  store i32 0, ptr %40, align 4, !tbaa !17
  %41 = load ptr, ptr %5, align 8, !tbaa !23
  %42 = load ptr, ptr %6, align 8, !tbaa !46
  %43 = call i32 @parse_primary(ptr noundef %41, ptr noundef %42)
  store i32 %43, ptr %4, align 4
  store i32 1, ptr %10, align 4
  br label %45

44:                                               ; preds = %33, %27, %17
  store i32 0, ptr %10, align 4
  br label %45

45:                                               ; preds = %44, %39
  call void @llvm.lifetime.end.p0(i64 8, ptr %9) #12
  call void @llvm.lifetime.end.p0(i64 8, ptr %8) #12
  %46 = load i32, ptr %10, align 4
  switch i32 %46, label %55 [
    i32 0, label %47
    i32 1, label %53
  ]

47:                                               ; preds = %45
  br label %48

48:                                               ; preds = %47, %3
  %49 = load ptr, ptr %5, align 8, !tbaa !23
  %50 = load ptr, ptr %6, align 8, !tbaa !46
  %51 = load ptr, ptr %7, align 8, !tbaa !50
  %52 = call i32 @parse_pow(ptr noundef %49, ptr noundef %50, ptr noundef %51)
  store i32 %52, ptr %4, align 4
  br label %53

53:                                               ; preds = %48, %45
  %54 = load i32, ptr %4, align 4
  ret i32 %54

55:                                               ; preds = %45
  unreachable
}

; Function Attrs: nounwind uwtable
define internal i32 @parse_factor(ptr noundef %0, ptr noundef %1) #0 {
  %3 = alloca i32, align 4
  %4 = alloca ptr, align 8
  %5 = alloca ptr, align 8
  %6 = alloca i32, align 4
  %7 = alloca i32, align 4
  %8 = alloca i32, align 4
  %9 = alloca ptr, align 8
  %10 = alloca ptr, align 8
  %11 = alloca ptr, align 8
  %12 = alloca i32, align 4
  store ptr %0, ptr %4, align 8, !tbaa !23
  store ptr %1, ptr %5, align 8, !tbaa !46
  call void @llvm.lifetime.start.p0(i64 4, ptr %6) #12
  call void @llvm.lifetime.start.p0(i64 4, ptr %7) #12
  call void @llvm.lifetime.start.p0(i64 4, ptr %8) #12
  call void @llvm.lifetime.start.p0(i64 8, ptr %9) #12
  call void @llvm.lifetime.start.p0(i64 8, ptr %10) #12
  call void @llvm.lifetime.start.p0(i64 8, ptr %11) #12
  %13 = load ptr, ptr %5, align 8, !tbaa !46
  %14 = call i32 @parse_dB(ptr noundef %9, ptr noundef %13, ptr noundef %6)
  store i32 %14, ptr %8, align 4, !tbaa !17
  %15 = icmp slt i32 %14, 0
  br i1 %15, label %16, label %18

16:                                               ; preds = %2
  %17 = load i32, ptr %8, align 4, !tbaa !17
  store i32 %17, ptr %3, align 4
  store i32 1, ptr %12, align 4
  br label %80

18:                                               ; preds = %2
  br label %19

19:                                               ; preds = %65, %18
  %20 = load ptr, ptr %5, align 8, !tbaa !46
  %21 = getelementptr inbounds nuw %struct.Parser, ptr %20, i32 0, i32 2
  %22 = load ptr, ptr %21, align 8, !tbaa !35
  %23 = getelementptr inbounds i8, ptr %22, i64 0
  %24 = load i8, ptr %23, align 1, !tbaa !12
  %25 = sext i8 %24 to i32
  %26 = icmp eq i32 %25, 94
  br i1 %26, label %27, label %66

27:                                               ; preds = %19
  %28 = load ptr, ptr %9, align 8, !tbaa !21
  store ptr %28, ptr %10, align 8, !tbaa !21
  %29 = load ptr, ptr %5, align 8, !tbaa !46
  %30 = getelementptr inbounds nuw %struct.Parser, ptr %29, i32 0, i32 2
  %31 = load ptr, ptr %30, align 8, !tbaa !35
  %32 = getelementptr inbounds nuw i8, ptr %31, i32 1
  store ptr %32, ptr %30, align 8, !tbaa !35
  %33 = load ptr, ptr %5, align 8, !tbaa !46
  %34 = call i32 @parse_dB(ptr noundef %11, ptr noundef %33, ptr noundef %7)
  store i32 %34, ptr %8, align 4, !tbaa !17
  %35 = icmp slt i32 %34, 0
  br i1 %35, label %36, label %39

36:                                               ; preds = %27
  %37 = load ptr, ptr %10, align 8, !tbaa !21
  call void @av_expr_free(ptr noundef %37)
  %38 = load i32, ptr %8, align 4, !tbaa !17
  store i32 %38, ptr %3, align 4
  store i32 1, ptr %12, align 4
  br label %80

39:                                               ; preds = %27
  %40 = load ptr, ptr %10, align 8, !tbaa !21
  %41 = load ptr, ptr %11, align 8, !tbaa !21
  %42 = call ptr @make_eval_expr(i32 noundef 18, i32 noundef 1, ptr noundef %40, ptr noundef %41)
  store ptr %42, ptr %9, align 8, !tbaa !21
  %43 = load ptr, ptr %9, align 8, !tbaa !21
  %44 = icmp ne ptr %43, null
  br i1 %44, label %48, label %45

45:                                               ; preds = %39
  %46 = load ptr, ptr %10, align 8, !tbaa !21
  call void @av_expr_free(ptr noundef %46)
  %47 = load ptr, ptr %11, align 8, !tbaa !21
  call void @av_expr_free(ptr noundef %47)
  store i32 -12, ptr %3, align 4
  store i32 1, ptr %12, align 4
  br label %80

48:                                               ; preds = %39
  %49 = load ptr, ptr %9, align 8, !tbaa !21
  %50 = getelementptr inbounds nuw %struct.AVExpr, ptr %49, i32 0, i32 4
  %51 = getelementptr inbounds [3 x ptr], ptr %50, i64 0, i64 1
  %52 = load ptr, ptr %51, align 8, !tbaa !21
  %53 = icmp ne ptr %52, null
  br i1 %53, label %54, label %65

54:                                               ; preds = %48
  %55 = load i32, ptr %7, align 4, !tbaa !17
  %56 = or i32 %55, 1
  %57 = sitofp i32 %56 to double
  %58 = load ptr, ptr %9, align 8, !tbaa !21
  %59 = getelementptr inbounds nuw %struct.AVExpr, ptr %58, i32 0, i32 4
  %60 = getelementptr inbounds [3 x ptr], ptr %59, i64 0, i64 1
  %61 = load ptr, ptr %60, align 8, !tbaa !21
  %62 = getelementptr inbounds nuw %struct.AVExpr, ptr %61, i32 0, i32 1
  %63 = load double, ptr %62, align 8, !tbaa !59
  %64 = fmul nsz double %63, %57
  store double %64, ptr %62, align 8, !tbaa !59
  br label %65

65:                                               ; preds = %54, %48
  br label %19, !llvm.loop !71

66:                                               ; preds = %19
  %67 = load ptr, ptr %9, align 8, !tbaa !21
  %68 = icmp ne ptr %67, null
  br i1 %68, label %69, label %77

69:                                               ; preds = %66
  %70 = load i32, ptr %6, align 4, !tbaa !17
  %71 = or i32 %70, 1
  %72 = sitofp i32 %71 to double
  %73 = load ptr, ptr %9, align 8, !tbaa !21
  %74 = getelementptr inbounds nuw %struct.AVExpr, ptr %73, i32 0, i32 1
  %75 = load double, ptr %74, align 8, !tbaa !59
  %76 = fmul nsz double %75, %72
  store double %76, ptr %74, align 8, !tbaa !59
  br label %77

77:                                               ; preds = %69, %66
  %78 = load ptr, ptr %9, align 8, !tbaa !21
  %79 = load ptr, ptr %4, align 8, !tbaa !23
  store ptr %78, ptr %79, align 8, !tbaa !21
  store i32 0, ptr %3, align 4
  store i32 1, ptr %12, align 4
  br label %80

80:                                               ; preds = %77, %45, %36, %16
  call void @llvm.lifetime.end.p0(i64 8, ptr %11) #12
  call void @llvm.lifetime.end.p0(i64 8, ptr %10) #12
  call void @llvm.lifetime.end.p0(i64 8, ptr %9) #12
  call void @llvm.lifetime.end.p0(i64 4, ptr %8) #12
  call void @llvm.lifetime.end.p0(i64 4, ptr %7) #12
  call void @llvm.lifetime.end.p0(i64 4, ptr %6) #12
  %81 = load i32, ptr %3, align 4
  ret i32 %81
}