; Function Attrs: nounwind uwtable
define internal fastcc range(i32 -2147483648, 1) i32 @parse_factor(ptr noundef nonnull writeonly captures(none) %0, ptr noundef nonnull %1) unnamed_addr #3 {
  %3 = alloca ptr, align 8
  %4 = alloca ptr, align 8
  %5 = alloca ptr, align 8
  %6 = alloca ptr, align 8
  call void @llvm.lifetime.start.p0(i64 8, ptr nonnull %5) #14
  call void @llvm.lifetime.start.p0(i64 8, ptr nonnull %6) #14
  %7 = getelementptr inbounds nuw i8, ptr %1, i64 16
  %8 = load ptr, ptr %7, align 8, !tbaa !28
  %9 = load i8, ptr %8, align 1, !tbaa !4
  %10 = icmp eq i8 %9, 45
  br i1 %10, label %11, label %24

11:                                               ; preds = %2
  call void @llvm.lifetime.start.p0(i64 8, ptr nonnull %4) #14
  %12 = call nsz double @strtod(ptr noundef nonnull %8, ptr noundef nonnull %4) #14
  %13 = load ptr, ptr %4, align 8, !tbaa !7
  %14 = load ptr, ptr %7, align 8, !tbaa !28
  %.not.i = icmp eq ptr %13, %14
  br i1 %.not.i, label %.thread, label %15

15:                                               ; preds = %11
  %16 = load i8, ptr %13, align 1, !tbaa !4
  %17 = icmp eq i8 %16, 100
  br i1 %17, label %18, label %.thread

18:                                               ; preds = %15
  %19 = getelementptr inbounds nuw i8, ptr %13, i64 1
  %20 = load i8, ptr %19, align 1, !tbaa !4
  %21 = icmp eq i8 %20, 66
  br i1 %21, label %22, label %.thread

.thread:                                          ; preds = %18, %15, %11
  call void @llvm.lifetime.end.p0(i64 8, ptr nonnull %4) #14
  %.pre = load i8, ptr %14, align 1, !tbaa !4
  br label %24

22:                                               ; preds = %18
  %23 = call fastcc i32 @parse_primary(ptr noundef nonnull %5, ptr noundef nonnull %1)
  call void @llvm.lifetime.end.p0(i64 8, ptr nonnull %4) #14
  br label %parse_dB.exit

24:                                               ; preds = %.thread, %2
  %25 = phi i8 [ %.pre, %.thread ], [ %9, %2 ]
  %26 = phi ptr [ %14, %.thread ], [ %8, %2 ]
  %27 = icmp eq i8 %25, 43
  %28 = zext i1 %27 to i32
  %29 = icmp eq i8 %25, 45
  %.neg.i = sext i1 %29 to i32
  %30 = add nsw i32 %.neg.i, %28
  %31 = and i32 %30, 1
  %32 = zext nneg i32 %31 to i64
  %33 = getelementptr inbounds nuw i8, ptr %26, i64 %32
  store ptr %33, ptr %7, align 8, !tbaa !28
  %34 = call fastcc range(i32 -2147483648, 1) i32 @parse_primary(ptr noundef nonnull %5, ptr noundef nonnull %1)
  %35 = or i32 %30, 1
  %36 = sitofp i32 %35 to double
  br label %parse_dB.exit

parse_dB.exit:                                    ; preds = %22, %24
  %.128 = phi double [ %36, %24 ], [ 1.000000e+00, %22 ]
  %.1.i = phi i32 [ %34, %24 ], [ %23, %22 ]
  %37 = icmp slt i32 %.1.i, 0
  br i1 %37, label %94, label %.preheader

.preheader:                                       ; preds = %parse_dB.exit
  %.promoted = load ptr, ptr %5, align 8
  %38 = load ptr, ptr %7, align 8, !tbaa !28
  %39 = load i8, ptr %38, align 1, !tbaa !4
  %40 = icmp eq i8 %39, 94
  br i1 %40, label %.lr.ph, label %._crit_edge

.lr.ph:                                           ; preds = %.preheader, %86
  %41 = phi ptr [ %87, %86 ], [ %38, %.preheader ]
  %42 = phi ptr [ %76, %86 ], [ %.promoted, %.preheader ]
  %43 = getelementptr inbounds nuw i8, ptr %41, i64 1
  store ptr %43, ptr %7, align 8, !tbaa !28
  %44 = load i8, ptr %43, align 1, !tbaa !4
  %45 = icmp eq i8 %44, 45
  br i1 %45, label %46, label %59

46:                                               ; preds = %.lr.ph
  call void @llvm.lifetime.start.p0(i64 8, ptr nonnull %3) #14
  %47 = call nsz double @strtod(ptr noundef nonnull %43, ptr noundef nonnull %3) #14
  %48 = load ptr, ptr %3, align 8, !tbaa !7
  %49 = load ptr, ptr %7, align 8, !tbaa !28
  %.not.i18 = icmp eq ptr %48, %49
  br i1 %.not.i18, label %.thread33, label %50

50:                                               ; preds = %46
  %51 = load i8, ptr %48, align 1, !tbaa !4
  %52 = icmp eq i8 %51, 100
  br i1 %52, label %53, label %.thread33

53:                                               ; preds = %50
  %54 = getelementptr inbounds nuw i8, ptr %48, i64 1
  %55 = load i8, ptr %54, align 1, !tbaa !4
  %56 = icmp eq i8 %55, 66
  br i1 %56, label %57, label %.thread33

.thread33:                                        ; preds = %53, %50, %46
  call void @llvm.lifetime.end.p0(i64 8, ptr nonnull %3) #14
  %.pre53 = load i8, ptr %49, align 1, !tbaa !4
  br label %59

57:                                               ; preds = %53
  %58 = call fastcc i32 @parse_primary(ptr noundef nonnull %6, ptr noundef nonnull %1)
  call void @llvm.lifetime.end.p0(i64 8, ptr nonnull %3) #14
  br label %parse_dB.exit22

59:                                               ; preds = %.thread33, %.lr.ph
  %60 = phi i8 [ %.pre53, %.thread33 ], [ %44, %.lr.ph ]
  %61 = phi ptr [ %49, %.thread33 ], [ %43, %.lr.ph ]
  %62 = icmp eq i8 %60, 43
  %63 = zext i1 %62 to i32
  %64 = icmp eq i8 %60, 45
  %.neg.i24 = sext i1 %64 to i32
  %65 = add nsw i32 %.neg.i24, %63
  %66 = and i32 %65, 1
  %67 = zext nneg i32 %66 to i64
  %68 = getelementptr inbounds nuw i8, ptr %61, i64 %67
  store ptr %68, ptr %7, align 8, !tbaa !28
  %69 = call fastcc range(i32 -2147483648, 1) i32 @parse_primary(ptr noundef nonnull %6, ptr noundef nonnull %1)
  %70 = or i32 %65, 1
  %71 = sitofp i32 %70 to double
  br label %parse_dB.exit22

parse_dB.exit22:                                  ; preds = %57, %59
  %.2 = phi double [ %71, %59 ], [ 1.000000e+00, %57 ]
  %.1.i17 = phi i32 [ %69, %59 ], [ %58, %57 ]
  %72 = icmp slt i32 %.1.i17, 0
  br i1 %72, label %73, label %74

73:                                               ; preds = %parse_dB.exit22
  tail call void @av_expr_free(ptr noundef %42)
  br label %94

74:                                               ; preds = %parse_dB.exit22
  %75 = load ptr, ptr %6, align 8, !tbaa !15
  %76 = tail call noalias ptr @av_mallocz(i64 noundef 72) #14
  %.not.i23 = icmp eq ptr %76, null
  br i1 %.not.i23, label %77, label %78

77:                                               ; preds = %74
  tail call void @av_expr_free(ptr noundef %42)
  tail call void @av_expr_free(ptr noundef %75)
  br label %94

78:                                               ; preds = %74
  store i32 18, ptr %76, align 8, !tbaa !39
  %79 = getelementptr inbounds nuw i8, ptr %76, i64 8
  store double 1.000000e+00, ptr %79, align 8, !tbaa !40
  %80 = getelementptr inbounds nuw i8, ptr %76, i64 32
  store ptr %42, ptr %80, align 8, !tbaa !15
  %81 = getelementptr inbounds nuw i8, ptr %76, i64 40
  store ptr %75, ptr %81, align 8, !tbaa !15
  %.not16 = icmp eq ptr %75, null
  br i1 %.not16, label %86, label %82

82:                                               ; preds = %78
  %83 = getelementptr inbounds nuw i8, ptr %75, i64 8
  %84 = load double, ptr %83, align 8, !tbaa !40
  %85 = fmul nsz double %.2, %84
  store double %85, ptr %83, align 8, !tbaa !40
  br label %86

86:                                               ; preds = %82, %78
  %87 = load ptr, ptr %7, align 8, !tbaa !28
  %88 = load i8, ptr %87, align 1, !tbaa !4
  %89 = icmp eq i8 %88, 94
  br i1 %89, label %.lr.ph, label %._crit_edge.thread, !llvm.loop !63

._crit_edge:                                      ; preds = %.preheader
  %.not = icmp eq ptr %.promoted, null
  br i1 %.not, label %93, label %._crit_edge.thread

._crit_edge.thread:                               ; preds = %86, %._crit_edge
  %.lcssa4256 = phi ptr [ %.promoted, %._crit_edge ], [ %76, %86 ]
  %90 = getelementptr inbounds nuw i8, ptr %.lcssa4256, i64 8
  %91 = load double, ptr %90, align 8, !tbaa !40
  %92 = fmul nsz double %.128, %91
  store double %92, ptr %90, align 8, !tbaa !40
  br label %93

93:                                               ; preds = %._crit_edge.thread, %._crit_edge
  %.lcssa4257 = phi ptr [ %.lcssa4256, %._crit_edge.thread ], [ null, %._crit_edge ]
  store ptr %.lcssa4257, ptr %0, align 8, !tbaa !15
  br label %94

94:                                               ; preds = %parse_dB.exit, %93, %77, %73
  %.0 = phi i32 [ %.1.i17, %73 ], [ -12, %77 ], [ 0, %93 ], [ %.1.i, %parse_dB.exit ]
  call void @llvm.lifetime.end.p0(i64 8, ptr nonnull %6) #14
  call void @llvm.lifetime.end.p0(i64 8, ptr nonnull %5) #14
  ret i32 %.0
}